target datalayout = "e-m:e-p270:32:32-p271:32:32-p272:64:64-i64:64-i128:128-f80:128-n8:16:32:64-S128"
target triple = "x86_64-pc-linux-gnu"

%class.btBox2dBox2dCollisionAlgorithm = type { %class.btActivatingCollisionAlgorithm, i8, ptr }
%class.btActivatingCollisionAlgorithm = type { %class.btCollisionAlgorithm }
%class.btCollisionAlgorithm = type { ptr, ptr }
%struct.btCollisionObjectWrapper = type { ptr, ptr, ptr, ptr, ptr, i32, i32 }
%class.btManifoldResult = type <{ %"struct.btDiscreteCollisionDetectorInterface::Result", ptr, ptr, ptr, i32, i32, i32, i32, float, [4 x i8] }>
%"struct.btDiscreteCollisionDetectorInterface::Result" = type { ptr }
%class.btTransform = type { %class.btMatrix3x3, %class.btVector3 }
%class.btMatrix3x3 = type { [3 x %class.btVector3] }
%class.btVector3 = type { [4 x float] }
%class.btPersistentManifold = type { %struct.btTypedObject, [4 x i8], [4 x %class.btManifoldPoint], ptr, ptr, i32, float, float, i32, i32, i32 }
%struct.btTypedObject = type { i32 }
%class.btManifoldPoint = type <{ %class.btVector3, %class.btVector3, %class.btVector3, %class.btVector3, %class.btVector3, float, float, float, float, float, i32, i32, i32, i32, [4 x i8], ptr, i32, float, float, float, float, float, float, %union.anon.0, %union.anon.1, float, i32, %class.btVector3, %class.btVector3, [4 x i8] }>
%union.anon.0 = type { float }
%union.anon.1 = type { float }
%class.btCollisionObject = type <{ ptr, %class.btTransform, %class.btTransform, %class.btVector3, %class.btVector3, %class.btVector3, i32, float, ptr, ptr, ptr, ptr, i32, i32, i32, i32, i32, float, float, float, float, float, float, float, i32, [4 x i8], ptr, i32, i32, i32, float, float, float, i32, [4 x i8], %class.btAlignedObjectArray, i32, %class.btVector3, [4 x i8] }>
%class.btAlignedObjectArray = type <{ [4 x i8], i32, i32, [4 x i8], ptr, i8, [7 x i8] }>

; Function Attrs: mustprogress nounwind uwtable
define linkonce_odr dso_local noundef nonnull align 4 dereferenceable(64) ptr @_ZNK17btCollisionObject17getWorldTransformEv(ptr noundef nonnull align 8 dereferenceable(372) %0) #1 comdat align 2 {
  %2 = alloca ptr, align 8
  store ptr %0, ptr %2, align 8, !tbaa !59
  %3 = load ptr, ptr %2, align 8
  %4 = getelementptr inbounds nuw %class.btCollisionObject, ptr %3, i32 0, i32 1
  ret ptr %4
}

; Function Attrs: inlinehint mustprogress nounwind uwtable
define linkonce_odr dso_local noundef ptr @_ZNK24btCollisionObjectWrapper18getCollisionObjectEv(ptr noundef nonnull align 8 dereferenceable(48) %0) #4 comdat align 2 {
  %2 = alloca ptr, align 8
  store ptr %0, ptr %2, align 8, !tbaa !18
  %3 = load ptr, ptr %2, align 8
  %4 = getelementptr inbounds nuw %struct.btCollisionObjectWrapper, ptr %3, i32 0, i32 2
  %5 = load ptr, ptr %4, align 8, !tbaa !30
  ret ptr %5
}

; Function Attrs: inlinehint mustprogress nounwind uwtable
define linkonce_odr dso_local noundef ptr @_ZNK20btPersistentManifold8getBody0Ev(ptr noundef nonnull align 8 dereferenceable(880) %0) #4 comdat align 2 {
  %2 = alloca ptr, align 8
  store ptr %0, ptr %2, align 8, !tbaa !14
  %3 = load ptr, ptr %2, align 8
  %4 = getelementptr inbounds nuw %class.btPersistentManifold, ptr %3, i32 0, i32 3
  %5 = load ptr, ptr %4, align 8, !tbaa !79
  ret ptr %5
}

; Function Attrs: inlinehint mustprogress nounwind uwtable
define linkonce_odr dso_local noundef i32 @_ZNK20btPersistentManifold14getNumContactsEv(ptr noundef nonnull align 8 dereferenceable(880) %0) #4 comdat align 2 {
  %2 = alloca ptr, align 8
  store ptr %0, ptr %2, align 8, !tbaa !14
  %3 = load ptr, ptr %2, align 8
  %4 = getelementptr inbounds nuw %class.btPersistentManifold, ptr %3, i32 0, i32 5
  %5 = load i32, ptr %4, align 8, !tbaa !76
  ret i32 %5
}

; Function Attrs: inlinehint mustprogress uwtable
define linkonce_odr dso_local void @_ZN16btManifoldResult20refreshContactPointsEv(ptr noundef nonnull align 8 dereferenceable(52) %0) #10 comdat align 2 {
  %2 = alloca ptr, align 8
  %3 = alloca i8, align 1
  store ptr %0, ptr %2, align 8, !tbaa !39
  %4 = load ptr, ptr %2, align 8
  %5 = getelementptr inbounds nuw %class.btManifoldResult, ptr %4, i32 0, i32 1
  %6 = load ptr, ptr %5, align 8, !tbaa !44
  %7 = call noundef i32 @_ZNK20btPersistentManifold14getNumContactsEv(ptr noundef nonnull align 8 dereferenceable(880) %6)
  %8 = icmp ne i32 %7, 0
  br i1 %8, label %10, label %9

9:                                                ; preds = %1
  br label %44

10:                                               ; preds = %1
  call void @llvm.lifetime.start.p0(i64 1, ptr %3) #14
  %11 = getelementptr inbounds nuw %class.btManifoldResult, ptr %4, i32 0, i32 1
  %12 = load ptr, ptr %11, align 8, !tbaa !44
  %13 = call noundef ptr @_ZNK20btPersistentManifold8getBody0Ev(ptr noundef nonnull align 8 dereferenceable(880) %12)
  %14 = getelementptr inbounds nuw %class.btManifoldResult, ptr %4, i32 0, i32 2
  %15 = load ptr, ptr %14, align 8, !tbaa !56
  %16 = call noundef ptr @_ZNK24btCollisionObjectWrapper18getCollisionObjectEv(ptr noundef nonnull align 8 dereferenceable(48) %15)
  %17 = icmp ne ptr %13, %16
  %18 = zext i1 %17 to i8
  store i8 %18, ptr %3, align 1, !tbaa !57
  %19 = load i8, ptr %3, align 1, !tbaa !57, !range !35, !noundef !36
  %20 = trunc i8 %19 to i1
  br i1 %20, label %21, label %32

21:                                               ; preds = %10
  %22 = getelementptr inbounds nuw %class.btManifoldResult, ptr %4, i32 0, i32 1
  %23 = load ptr, ptr %22, align 8, !tbaa !44
  %24 = getelementptr inbounds nuw %class.btManifoldResult, ptr %4, i32 0, i32 3
  %25 = load ptr, ptr %24, align 8, !tbaa !58
  %26 = call noundef ptr @_ZNK24btCollisionObjectWrapper18getCollisionObjectEv(ptr noundef nonnull align 8 dereferenceable(48) %25)
  %27 = call noundef nonnull align 4 dereferenceable(64) ptr @_ZNK17btCollisionObject17getWorldTransformEv(ptr noundef nonnull align 8 dereferenceable(372) %26)
  %28 = getelementptr inbounds nuw %class.btManifoldResult, ptr %4, i32 0, i32 2
  %29 = load ptr, ptr %28, align 8, !tbaa !56
  %30 = call noundef ptr @_ZNK24btCollisionObjectWrapper18getCollisionObjectEv(ptr noundef nonnull align 8 dereferenceable(48) %29)
  %31 = call noundef nonnull align 4 dereferenceable(64) ptr @_ZNK17btCollisionObject17getWorldTransformEv(ptr noundef nonnull align 8 dereferenceable(372) %30)
  call void @_ZN20btPersistentManifold20refreshContactPointsERK11btTransformS2_(ptr noundef nonnull align 8 dereferenceable(880) %23, ptr noundef nonnull align 4 dereferenceable(64) %27, ptr noundef nonnull align 4 dereferenceable(64) %31)
  br label %43

32:                                               ; preds = %10
  %33 = getelementptr inbounds nuw %class.btManifoldResult, ptr %4, i32 0, i32 1
  %34 = load ptr, ptr %33, align 8, !tbaa !44
  %35 = getelementptr inbounds nuw %class.btManifoldResult, ptr %4, i32 0, i32 2
  %36 = load ptr, ptr %35, align 8, !tbaa !56
  %37 = call noundef ptr @_ZNK24btCollisionObjectWrapper18getCollisionObjectEv(ptr noundef nonnull align 8 dereferenceable(48) %36)
  %38 = call noundef nonnull align 4 dereferenceable(64) ptr @_ZNK17btCollisionObject17getWorldTransformEv(ptr noundef nonnull align 8 dereferenceable(372) %37)
  %39 = getelementptr inbounds nuw %class.btManifoldResult, ptr %4, i32 0, i32 3
  %40 = load ptr, ptr %39, align 8, !tbaa !58
  %41 = call noundef ptr @_ZNK24btCollisionObjectWrapper18getCollisionObjectEv(ptr noundef nonnull align 8 dereferenceable(48) %40)
  %42 = call noundef nonnull align 4 dereferenceable(64) ptr @_ZNK17btCollisionObject17getWorldTransformEv(ptr noundef nonnull align 8 dereferenceable(372) %41)
  call void @_ZN20btPersistentManifold20refreshContactPointsERK11btTransformS2_(ptr noundef nonnull align 8 dereferenceable(880) %34, ptr noundef nonnull align 4 dereferenceable(64) %38, ptr noundef nonnull align 4 dereferenceable(64) %42)
  br label %43

43:                                               ; preds = %32, %21
  call void @llvm.lifetime.end.p0(i64 1, ptr %3) #14
  br label %44

44:                                               ; preds = %43, %9
  ret void
}

; Function Attrs: inlinehint mustprogress nounwind uwtable
define linkonce_odr dso_local noundef nonnull align 4 dereferenceable(64) ptr @_ZNK24btCollisionObjectWrapper17getWorldTransformEv(ptr noundef nonnull align 8 dereferenceable(48) %0) #4 comdat align 2 {
  %2 = alloca ptr, align 8
  store ptr %0, ptr %2, align 8, !tbaa !18
  %3 = load ptr, ptr %2, align 8
  %4 = getelementptr inbounds nuw %struct.btCollisionObjectWrapper, ptr %3, i32 0, i32 3
  %5 = load ptr, ptr %4, align 8, !tbaa !55
  ret ptr %5
}

; Function Attrs: mustprogress nounwind uwtable
define linkonce_odr dso_local void @_ZN16btManifoldResult21setPersistentManifoldEP20btPersistentManifold(ptr noundef nonnull align 8 dereferenceable(52) %0, ptr noundef %1) #1 comdat align 2 {
  %3 = alloca ptr, align 8
  %4 = alloca ptr, align 8
  store ptr %0, ptr %3, align 8, !tbaa !39
  store ptr %1, ptr %4, align 8, !tbaa !14
  %5 = load ptr, ptr %3, align 8
  %6 = load ptr, ptr %4, align 8, !tbaa !14
  %7 = getelementptr inbounds nuw %class.btManifoldResult, ptr %5, i32 0, i32 1
  store ptr %6, ptr %7, align 8, !tbaa !44
  ret void
}

; Function Attrs: inlinehint mustprogress nounwind uwtable
define linkonce_odr dso_local noundef ptr @_ZNK24btCollisionObjectWrapper17getCollisionShapeEv(ptr noundef nonnull align 8 dereferenceable(48) %0) #4 comdat align 2 {
  %2 = alloca ptr, align 8
  store ptr %0, ptr %2, align 8, !tbaa !18
  %3 = load ptr, ptr %2, align 8
  %4 = getelementptr inbounds nuw %struct.btCollisionObjectWrapper, ptr %3, i32 0, i32 1
  %5 = load ptr, ptr %4, align 8, !tbaa !43
  ret ptr %5
}

; Function Attrs: mustprogress uwtable
define dso_local void @_ZN30btBox2dBox2dCollisionAlgorithm16processCollisionEPK24btCollisionObjectWrapperS2_RK16btDispatcherInfoP16btManifoldResult(ptr noundef nonnull align 8 dereferenceable(32) %0, ptr noundef %1, ptr noundef %2, ptr noundef nonnull align 8 dereferenceable(49) %3, ptr noundef %4) unnamed_addr #2 align 2 {
  %6 = alloca ptr, align 8
  %7 = alloca ptr, align 8
  %8 = alloca ptr, align 8
  %9 = alloca ptr, align 8
  %10 = alloca ptr, align 8
  %11 = alloca ptr, align 8
  %12 = alloca ptr, align 8
  store ptr %0, ptr %6, align 8, !tbaa !12
  store ptr %1, ptr %7, align 8, !tbaa !18
  store ptr %2, ptr %8, align 8, !tbaa !18
  store ptr %3, ptr %9, align 8, !tbaa !37
  store ptr %4, ptr %10, align 8, !tbaa !39
  %13 = load ptr, ptr %6, align 8
  %14 = getelementptr inbounds nuw %class.btBox2dBox2dCollisionAlgorithm, ptr %13, i32 0, i32 2
  %15 = load ptr, ptr %14, align 8, !tbaa !28
  %16 = icmp ne ptr %15, null
  br i1 %16, label %18, label %17

17:                                               ; preds = %5
  br label %39

18:                                               ; preds = %5
  call void @llvm.lifetime.start.p0(i64 8, ptr %11) #14
  %19 = load ptr, ptr %7, align 8, !tbaa !18
  %20 = call noundef ptr @_ZNK24btCollisionObjectWrapper17getCollisionShapeEv(ptr noundef nonnull align 8 dereferenceable(48) %19)
  store ptr %20, ptr %11, align 8, !tbaa !41
  call void @llvm.lifetime.start.p0(i64 8, ptr %12) #14
  %21 = load ptr, ptr %8, align 8, !tbaa !18
  %22 = call noundef ptr @_ZNK24btCollisionObjectWrapper17getCollisionShapeEv(ptr noundef nonnull align 8 dereferenceable(48) %21)
  store ptr %22, ptr %12, align 8, !tbaa !41
  %23 = load ptr, ptr %10, align 8, !tbaa !39
  %24 = getelementptr inbounds nuw %class.btBox2dBox2dCollisionAlgorithm, ptr %13, i32 0, i32 2
  %25 = load ptr, ptr %24, align 8, !tbaa !28
  call void @_ZN16btManifoldResult21setPersistentManifoldEP20btPersistentManifold(ptr noundef nonnull align 8 dereferenceable(52) %23, ptr noundef %25)
  %26 = load ptr, ptr %10, align 8, !tbaa !39
  %27 = load ptr, ptr %11, align 8, !tbaa !41
  %28 = load ptr, ptr %7, align 8, !tbaa !18
  %29 = call noundef nonnull align 4 dereferenceable(64) ptr @_ZNK24btCollisionObjectWrapper17getWorldTransformEv(ptr noundef nonnull align 8 dereferenceable(48) %28)
  %30 = load ptr, ptr %12, align 8, !tbaa !41
  %31 = load ptr, ptr %8, align 8, !tbaa !18
  %32 = call noundef nonnull align 4 dereferenceable(64) ptr @_ZNK24btCollisionObjectWrapper17getWorldTransformEv(ptr noundef nonnull align 8 dereferenceable(48) %31)
  call void @_Z17b2CollidePolygonsP16btManifoldResultPK12btBox2dShapeRK11btTransformS3_S6_(ptr noundef %26, ptr noundef %27, ptr noundef nonnull align 4 dereferenceable(64) %29, ptr noundef %30, ptr noundef nonnull align 4 dereferenceable(64) %32)
  %33 = getelementptr inbounds nuw %class.btBox2dBox2dCollisionAlgorithm, ptr %13, i32 0, i32 1
  %34 = load i8, ptr %33, align 8, !tbaa !22, !range !35, !noundef !36
  %35 = trunc i8 %34 to i1
  br i1 %35, label %36, label %38

36:                                               ; preds = %18
  %37 = load ptr, ptr %10, align 8, !tbaa !39
  call void @_ZN16btManifoldResult20refreshContactPointsEv(ptr noundef nonnull align 8 dereferenceable(52) %37)
  br label %38

38:                                               ; preds = %36, %18
  call void @llvm.lifetime.end.p0(i64 8, ptr %12) #14
  call void @llvm.lifetime.end.p0(i64 8, ptr %11) #14
  br label %39

39:                                               ; preds = %38, %17
  ret void
}