; Function Attrs: mustprogress uwtable
define dso_local void @_ZN30btBox2dBox2dCollisionAlgorithm16processCollisionEPK24btCollisionObjectWrapperS2_RK16btDispatcherInfoP16btManifoldResult(ptr noundef nonnull readonly align 8 captures(none) dereferenceable(32) %0, ptr noundef readonly captures(none) %1, ptr noundef readonly captures(none) %2, ptr nonnull readnone align 8 captures(none) %3, ptr noundef %4) unnamed_addr #0 align 2 {
  %6 = getelementptr inbounds nuw i8, ptr %0, i64 24
  %7 = load ptr, ptr %6, align 8, !tbaa !16
  %.not = icmp eq ptr %7, null
  br i1 %.not, label %_ZN16btManifoldResult20refreshContactPointsEv.exit, label %8

8:                                                ; preds = %5
  %9 = getelementptr inbounds nuw i8, ptr %1, i64 8
  %10 = load ptr, ptr %9, align 8, !tbaa !27
  %11 = getelementptr inbounds nuw i8, ptr %2, i64 8
  %12 = load ptr, ptr %11, align 8, !tbaa !27
  %13 = getelementptr inbounds nuw i8, ptr %4, i64 8
  store ptr %7, ptr %13, align 8, !tbaa !28
  %14 = getelementptr inbounds nuw i8, ptr %1, i64 24
  %15 = load ptr, ptr %14, align 8, !tbaa !32
  %16 = getelementptr inbounds nuw i8, ptr %2, i64 24
  %17 = load ptr, ptr %16, align 8, !tbaa !32
  tail call void @_Z17b2CollidePolygonsP16btManifoldResultPK12btBox2dShapeRK11btTransformS3_S6_(ptr noundef nonnull %4, ptr noundef %10, ptr noundef nonnull align 4 dereferenceable(64) %15, ptr noundef %12, ptr noundef nonnull align 4 dereferenceable(64) %17)
  %18 = getelementptr inbounds nuw i8, ptr %0, i64 16
  %19 = load i8, ptr %18, align 8, !tbaa !7, !range !25, !noundef !26
  %20 = trunc nuw i8 %19 to i1
  br i1 %20, label %21, label %_ZN16btManifoldResult20refreshContactPointsEv.exit

21:                                               ; preds = %8
  %22 = load ptr, ptr %13, align 8, !tbaa !28
  %23 = getelementptr inbounds nuw i8, ptr %22, i64 856
  %24 = load i32, ptr %23, align 8, !tbaa !33
  %.not.i = icmp eq i32 %24, 0
  br i1 %.not.i, label %_ZN16btManifoldResult20refreshContactPointsEv.exit, label %.sink.split.i

.sink.split.i:                                    ; preds = %21
  %25 = getelementptr inbounds nuw i8, ptr %22, i64 840
  %26 = load ptr, ptr %25, align 8, !tbaa !36
  %27 = getelementptr inbounds nuw i8, ptr %4, i64 16
  %28 = load ptr, ptr %27, align 8, !tbaa !37
  %29 = getelementptr inbounds nuw i8, ptr %28, i64 16
  %30 = load ptr, ptr %29, align 8, !tbaa !18
  %.not1.i = icmp eq ptr %26, %30
  %31 = getelementptr inbounds nuw i8, ptr %4, i64 24
  %32 = load ptr, ptr %31, align 8, !tbaa !38
  %33 = getelementptr inbounds nuw i8, ptr %32, i64 16
  %34 = load ptr, ptr %33, align 8, !tbaa !18
  %. = select i1 %.not1.i, ptr %34, ptr %30
  %.10 = select i1 %.not1.i, ptr %30, ptr %34
  %.sink.i = getelementptr inbounds nuw i8, ptr %.10, i64 8
  %35 = getelementptr inbounds nuw i8, ptr %., i64 8
  tail call void @_ZN20btPersistentManifold20refreshContactPointsERK11btTransformS2_(ptr noundef nonnull align 8 dereferenceable(880) %22, ptr noundef nonnull align 4 dereferenceable(64) %.sink.i, ptr noundef nonnull align 4 dereferenceable(64) %35)
  br label %_ZN16btManifoldResult20refreshContactPointsEv.exit

_ZN16btManifoldResult20refreshContactPointsEv.exit: ; preds = %.sink.split.i, %21, %8, %5
  ret void
}